target datalayout = "e-m:e-p270:32:32-p271:32:32-p272:64:64-i64:64-i128:128-f80:128-n8:16:32:64-S128"
target triple = "x86_64-pc-linux-gnu"

%struct.evthread_lock_callbacks = type { i32, i32, ptr, ptr, ptr, ptr }
%struct.ev_token_bucket = type { i64, i64, i32 }
%struct.ev_token_bucket_cfg = type { i64, i64, i64, i64, %struct.timeval, i32 }
%struct.timeval = type { i64, i64 }
%struct.event = type { %struct.event_callback, %union.anon.0, i32, i16, i16, ptr, %union.anon.2, %struct.timeval }
%union.anon.0 = type { %struct.anon.1 }
%struct.anon.1 = type { ptr, ptr }
%union.anon.2 = type { %struct.anon.3 }
%struct.anon.3 = type { %struct.anon.4, %struct.timeval }
%struct.anon.4 = type { ptr, ptr }
%struct.event_callback = type { %struct.anon, i16, i8, i8, %union.anon, ptr }
%struct.anon = type { ptr, ptr }
%union.anon = type { ptr }
%struct.bufferevent_rate_limit_group = type { %struct.rlim_group_member_list, %struct.ev_token_bucket, %struct.ev_token_bucket_cfg, i8, i64, i64, i32, i64, i64, %struct.event, %struct.evutil_weakrand_state, ptr }
%struct.rlim_group_member_list = type { ptr }
%struct.evutil_weakrand_state = type { i32 }

@evthread_lock_fns_ = external global %struct.evthread_lock_callbacks, align 8

; Function Attrs: nounwind uwtable
define i32 @bufferevent_rate_limit_group_set_min_share(ptr noundef %0, i64 noundef %1) #0 {
  %3 = alloca i32, align 4
  %4 = alloca ptr, align 8
  %5 = alloca i64, align 8
  store ptr %0, ptr %4, align 8
  store i64 %1, ptr %5, align 8
  %6 = load i64, ptr %5, align 8
  %7 = icmp ugt i64 %6, 9223372036854775807
  br i1 %7, label %8, label %9

8:                                                ; preds = %2
  store i32 -1, ptr %3, align 4
  br label %40

9:                                                ; preds = %2
  %10 = load i64, ptr %5, align 8
  %11 = load ptr, ptr %4, align 8
  %12 = getelementptr inbounds nuw %struct.bufferevent_rate_limit_group, ptr %11, i32 0, i32 8
  store i64 %10, ptr %12, align 8
  %13 = load i64, ptr %5, align 8
  %14 = load ptr, ptr %4, align 8
  %15 = getelementptr inbounds nuw %struct.bufferevent_rate_limit_group, ptr %14, i32 0, i32 2
  %16 = getelementptr inbounds nuw %struct.ev_token_bucket_cfg, ptr %15, i32 0, i32 0
  %17 = load i64, ptr %16, align 8
  %18 = icmp ugt i64 %13, %17
  br i1 %18, label %19, label %24

19:                                               ; preds = %9
  %20 = load ptr, ptr %4, align 8
  %21 = getelementptr inbounds nuw %struct.bufferevent_rate_limit_group, ptr %20, i32 0, i32 2
  %22 = getelementptr inbounds nuw %struct.ev_token_bucket_cfg, ptr %21, i32 0, i32 0
  %23 = load i64, ptr %22, align 8
  store i64 %23, ptr %5, align 8
  br label %24

24:                                               ; preds = %19, %9
  %25 = load i64, ptr %5, align 8
  %26 = load ptr, ptr %4, align 8
  %27 = getelementptr inbounds nuw %struct.bufferevent_rate_limit_group, ptr %26, i32 0, i32 2
  %28 = getelementptr inbounds nuw %struct.ev_token_bucket_cfg, ptr %27, i32 0, i32 2
  %29 = load i64, ptr %28, align 8
  %30 = icmp ugt i64 %25, %29
  br i1 %30, label %31, label %36

31:                                               ; preds = %24
  %32 = load ptr, ptr %4, align 8
  %33 = getelementptr inbounds nuw %struct.bufferevent_rate_limit_group, ptr %32, i32 0, i32 2
  %34 = getelementptr inbounds nuw %struct.ev_token_bucket_cfg, ptr %33, i32 0, i32 2
  %35 = load i64, ptr %34, align 8
  store i64 %35, ptr %5, align 8
  br label %36

36:                                               ; preds = %31, %24
  %37 = load i64, ptr %5, align 8
  %38 = load ptr, ptr %4, align 8
  %39 = getelementptr inbounds nuw %struct.bufferevent_rate_limit_group, ptr %38, i32 0, i32 7
  store i64 %37, ptr %39, align 8
  store i32 0, ptr %3, align 4
  br label %40

40:                                               ; preds = %36, %8
  %41 = load i32, ptr %3, align 4
  ret i32 %41
}

; Function Attrs: nounwind uwtable
define hidden i32 @ev_token_bucket_init_(ptr noundef %0, ptr noundef %1, i32 noundef %2, i32 noundef %3) #0 {
  %5 = alloca ptr, align 8
  %6 = alloca ptr, align 8
  %7 = alloca i32, align 4
  %8 = alloca i32, align 4
  store ptr %0, ptr %5, align 8
  store ptr %1, ptr %6, align 8
  store i32 %2, ptr %7, align 4
  store i32 %3, ptr %8, align 4
  %9 = load i32, ptr %8, align 4
  %10 = icmp ne i32 %9, 0
  br i1 %10, label %11, label %40

11:                                               ; preds = %4
  %12 = load ptr, ptr %5, align 8
  %13 = getelementptr inbounds nuw %struct.ev_token_bucket, ptr %12, i32 0, i32 0
  %14 = load i64, ptr %13, align 8
  %15 = load ptr, ptr %6, align 8
  %16 = getelementptr inbounds nuw %struct.ev_token_bucket_cfg, ptr %15, i32 0, i32 1
  %17 = load i64, ptr %16, align 8
  %18 = icmp sgt i64 %14, %17
  br i1 %18, label %19, label %25

19:                                               ; preds = %11
  %20 = load ptr, ptr %6, align 8
  %21 = getelementptr inbounds nuw %struct.ev_token_bucket_cfg, ptr %20, i32 0, i32 1
  %22 = load i64, ptr %21, align 8
  %23 = load ptr, ptr %5, align 8
  %24 = getelementptr inbounds nuw %struct.ev_token_bucket, ptr %23, i32 0, i32 0
  store i64 %22, ptr %24, align 8
  br label %25

25:                                               ; preds = %19, %11
  %26 = load ptr, ptr %5, align 8
  %27 = getelementptr inbounds nuw %struct.ev_token_bucket, ptr %26, i32 0, i32 1
  %28 = load i64, ptr %27, align 8
  %29 = load ptr, ptr %6, align 8
  %30 = getelementptr inbounds nuw %struct.ev_token_bucket_cfg, ptr %29, i32 0, i32 3
  %31 = load i64, ptr %30, align 8
  %32 = icmp sgt i64 %28, %31
  br i1 %32, label %33, label %39

33:                                               ; preds = %25
  %34 = load ptr, ptr %6, align 8
  %35 = getelementptr inbounds nuw %struct.ev_token_bucket_cfg, ptr %34, i32 0, i32 3
  %36 = load i64, ptr %35, align 8
  %37 = load ptr, ptr %5, align 8
  %38 = getelementptr inbounds nuw %struct.ev_token_bucket, ptr %37, i32 0, i32 1
  store i64 %36, ptr %38, align 8
  br label %39

39:                                               ; preds = %33, %25
  br label %54

40:                                               ; preds = %4
  %41 = load ptr, ptr %6, align 8
  %42 = getelementptr inbounds nuw %struct.ev_token_bucket_cfg, ptr %41, i32 0, i32 0
  %43 = load i64, ptr %42, align 8
  %44 = load ptr, ptr %5, align 8
  %45 = getelementptr inbounds nuw %struct.ev_token_bucket, ptr %44, i32 0, i32 0
  store i64 %43, ptr %45, align 8
  %46 = load ptr, ptr %6, align 8
  %47 = getelementptr inbounds nuw %struct.ev_token_bucket_cfg, ptr %46, i32 0, i32 2
  %48 = load i64, ptr %47, align 8
  %49 = load ptr, ptr %5, align 8
  %50 = getelementptr inbounds nuw %struct.ev_token_bucket, ptr %49, i32 0, i32 1
  store i64 %48, ptr %50, align 8
  %51 = load i32, ptr %7, align 4
  %52 = load ptr, ptr %5, align 8
  %53 = getelementptr inbounds nuw %struct.ev_token_bucket, ptr %52, i32 0, i32 2
  store i32 %51, ptr %53, align 8
  br label %54

54:                                               ; preds = %40, %39
  ret i32 0
}

; Function Attrs: nounwind uwtable
define hidden i32 @ev_token_bucket_get_tick_(ptr noundef %0, ptr noundef %1) #0 {
  %3 = alloca ptr, align 8
  %4 = alloca ptr, align 8
  %5 = alloca i64, align 8
  store ptr %0, ptr %3, align 8
  store ptr %1, ptr %4, align 8
  call void @llvm.lifetime.start.p0(i64 8, ptr %5) #5
  %6 = load ptr, ptr %3, align 8
  %7 = getelementptr inbounds nuw %struct.timeval, ptr %6, i32 0, i32 0
  %8 = load i64, ptr %7, align 8
  %9 = mul i64 %8, 1000
  %10 = load ptr, ptr %3, align 8
  %11 = getelementptr inbounds nuw %struct.timeval, ptr %10, i32 0, i32 1
  %12 = load i64, ptr %11, align 8
  %13 = sdiv i64 %12, 1000
  %14 = add i64 %9, %13
  store i64 %14, ptr %5, align 8
  %15 = load i64, ptr %5, align 8
  %16 = load ptr, ptr %4, align 8
  %17 = getelementptr inbounds nuw %struct.ev_token_bucket_cfg, ptr %16, i32 0, i32 5
  %18 = load i32, ptr %17, align 8
  %19 = zext i32 %18 to i64
  %20 = udiv i64 %15, %19
  %21 = trunc i64 %20 to i32
  call void @llvm.lifetime.end.p0(i64 8, ptr %5) #5
  ret i32 %21
}

; Function Attrs: nounwind uwtable
define ptr @bufferevent_rate_limit_group_new(ptr noundef %0, ptr noundef %1) #0 {
  %3 = alloca ptr, align 8
  %4 = alloca ptr, align 8
  %5 = alloca ptr, align 8
  %6 = alloca ptr, align 8
  %7 = alloca %struct.timeval, align 8
  %8 = alloca i32, align 4
  %9 = alloca i32, align 4
  store ptr %0, ptr %4, align 8
  store ptr %1, ptr %5, align 8
  call void @llvm.lifetime.start.p0(i64 8, ptr %6) #5
  call void @llvm.lifetime.start.p0(i64 16, ptr %7) #5
  call void @llvm.lifetime.start.p0(i64 4, ptr %8) #5
  %10 = load ptr, ptr %4, align 8
  %11 = call i32 @event_base_gettimeofday_cached(ptr noundef %10, ptr noundef %7)
  %12 = load ptr, ptr %5, align 8
  %13 = call i32 @ev_token_bucket_get_tick_(ptr noundef %7, ptr noundef %12)
  store i32 %13, ptr %8, align 4
  %14 = call ptr @event_mm_calloc_(i64 noundef 1, i64 noundef 272)
  store ptr %14, ptr %6, align 8
  %15 = load ptr, ptr %6, align 8
  %16 = icmp ne ptr %15, null
  br i1 %16, label %18, label %17

17:                                               ; preds = %2
  store ptr null, ptr %3, align 8
  store i32 1, ptr %9, align 4
  br label %68

18:                                               ; preds = %2
  %19 = load ptr, ptr %6, align 8
  %20 = getelementptr inbounds nuw %struct.bufferevent_rate_limit_group, ptr %19, i32 0, i32 2
  %21 = load ptr, ptr %5, align 8
  call void @llvm.memcpy.p0.p0.i64(ptr align 8 %20, ptr align 8 %21, i64 56, i1 false)
  br label %22

22:                                               ; preds = %18
  %23 = load ptr, ptr %6, align 8
  %24 = getelementptr inbounds nuw %struct.bufferevent_rate_limit_group, ptr %23, i32 0, i32 0
  %25 = getelementptr inbounds nuw %struct.rlim_group_member_list, ptr %24, i32 0, i32 0
  store ptr null, ptr %25, align 8
  br label %26

26:                                               ; preds = %22
  br label %27

27:                                               ; preds = %26
  %28 = load ptr, ptr %6, align 8
  %29 = getelementptr inbounds nuw %struct.bufferevent_rate_limit_group, ptr %28, i32 0, i32 1
  %30 = load ptr, ptr %5, align 8
  %31 = load i32, ptr %8, align 4
  %32 = call i32 @ev_token_bucket_init_(ptr noundef %29, ptr noundef %30, i32 noundef %31, i32 noundef 0)
  %33 = load ptr, ptr %6, align 8
  %34 = getelementptr inbounds nuw %struct.bufferevent_rate_limit_group, ptr %33, i32 0, i32 9
  %35 = load ptr, ptr %4, align 8
  %36 = load ptr, ptr %6, align 8
  %37 = call i32 @event_assign(ptr noundef %34, ptr noundef %35, i32 noundef -1, i16 noundef signext 80, ptr noundef @bev_group_refill_callback_, ptr noundef %36)
  %38 = load ptr, ptr %6, align 8
  %39 = getelementptr inbounds nuw %struct.bufferevent_rate_limit_group, ptr %38, i32 0, i32 9
  %40 = load ptr, ptr %5, align 8
  %41 = getelementptr inbounds nuw %struct.ev_token_bucket_cfg, ptr %40, i32 0, i32 4
  %42 = call i32 @event_add(ptr noundef %39, ptr noundef %41)
  %43 = load ptr, ptr getelementptr inbounds nuw (%struct.evthread_lock_callbacks, ptr @evthread_lock_fns_, i32 0, i32 2), align 8
  %44 = icmp ne ptr %43, null
  br i1 %44, label %45, label %48

45:                                               ; preds = %27
  %46 = load ptr, ptr getelementptr inbounds nuw (%struct.evthread_lock_callbacks, ptr @evthread_lock_fns_, i32 0, i32 2), align 8
  %47 = call ptr %46(i32 noundef 1)
  br label %49

48:                                               ; preds = %27
  br label %49

49:                                               ; preds = %48, %45
  %50 = phi ptr [ %47, %45 ], [ null, %48 ]
  %51 = load ptr, ptr %6, align 8
  %52 = getelementptr inbounds nuw %struct.bufferevent_rate_limit_group, ptr %51, i32 0, i32 11
  store ptr %50, ptr %52, align 8
  %53 = load ptr, ptr %6, align 8
  %54 = call i32 @bufferevent_rate_limit_group_set_min_share(ptr noundef %53, i64 noundef 64)
  %55 = load ptr, ptr %6, align 8
  %56 = getelementptr inbounds nuw %struct.bufferevent_rate_limit_group, ptr %55, i32 0, i32 10
  %57 = getelementptr inbounds nuw %struct.timeval, ptr %7, i32 0, i32 0
  %58 = load i64, ptr %57, align 8
  %59 = getelementptr inbounds nuw %struct.timeval, ptr %7, i32 0, i32 1
  %60 = load i64, ptr %59, align 8
  %61 = add nsw i64 %58, %60
  %62 = load ptr, ptr %6, align 8
  %63 = ptrtoint ptr %62 to i64
  %64 = add nsw i64 %61, %63
  %65 = trunc i64 %64 to i32
  %66 = call i32 @evutil_weakrand_seed_(ptr noundef %56, i32 noundef %65)
  %67 = load ptr, ptr %6, align 8
  store ptr %67, ptr %3, align 8
  store i32 1, ptr %9, align 4
  br label %68

68:                                               ; preds = %49, %17
  call void @llvm.lifetime.end.p0(i64 4, ptr %8) #5
  call void @llvm.lifetime.end.p0(i64 16, ptr %7) #5
  call void @llvm.lifetime.end.p0(i64 8, ptr %6) #5
  %69 = load ptr, ptr %3, align 8
  ret ptr %69
}