; Function Attrs: nounwind uwtable
define ptr @bufferevent_rate_limit_group_new(ptr noundef %0, ptr noundef %1) local_unnamed_addr #3 {
  %3 = alloca %struct.timeval, align 8
  call void @llvm.lifetime.start.p0(i64 16, ptr nonnull %3) #10
  %4 = call i32 @event_base_gettimeofday_cached(ptr noundef %0, ptr noundef nonnull %3) #10
  %5 = load i64, ptr %3, align 8
  %6 = getelementptr inbounds nuw i8, ptr %3, i64 8
  %7 = load i64, ptr %6, align 8
  %8 = getelementptr inbounds nuw i8, ptr %1, i64 48
  %9 = load i32, ptr %8, align 8
  %10 = call ptr @event_mm_calloc_(i64 noundef 1, i64 noundef 272) #10
  %.not = icmp eq ptr %10, null
  br i1 %.not, label %48, label %11

11:                                               ; preds = %2
  %12 = sdiv i64 %7, 1000
  %13 = mul i64 %5, 1000
  %14 = add i64 %12, %13
  %15 = zext i32 %9 to i64
  %16 = udiv i64 %14, %15
  %17 = trunc i64 %16 to i32
  %18 = getelementptr inbounds nuw i8, ptr %10, i64 32
  call void @llvm.memcpy.p0.p0.i64(ptr noundef nonnull align 8 dereferenceable(56) %18, ptr noundef nonnull align 8 dereferenceable(56) %1, i64 56, i1 false)
  store ptr null, ptr %10, align 8
  %19 = getelementptr inbounds nuw i8, ptr %10, i64 8
  %20 = load i64, ptr %1, align 8
  store i64 %20, ptr %19, align 8
  %21 = getelementptr inbounds nuw i8, ptr %1, i64 16
  %22 = load i64, ptr %21, align 8
  %23 = getelementptr inbounds nuw i8, ptr %10, i64 16
  store i64 %22, ptr %23, align 8
  %24 = getelementptr inbounds nuw i8, ptr %10, i64 24
  store i32 %17, ptr %24, align 8
  %25 = getelementptr inbounds nuw i8, ptr %10, i64 136
  %26 = call i32 @event_assign(ptr noundef nonnull %25, ptr noundef %0, i32 noundef -1, i16 noundef signext 80, ptr noundef nonnull @bev_group_refill_callback_, ptr noundef nonnull %10) #10
  %27 = getelementptr inbounds nuw i8, ptr %1, i64 32
  %28 = call i32 @event_add(ptr noundef nonnull %25, ptr noundef nonnull %27) #10
  %29 = load ptr, ptr getelementptr inbounds nuw (i8, ptr @evthread_lock_fns_, i64 8), align 8
  %.not21 = icmp eq ptr %29, null
  br i1 %.not21, label %32, label %30

30:                                               ; preds = %11
  %31 = call ptr %29(i32 noundef 1) #10
  br label %32

32:                                               ; preds = %11, %30
  %33 = phi ptr [ %31, %30 ], [ null, %11 ]
  %34 = getelementptr inbounds nuw i8, ptr %10, i64 264
  store ptr %33, ptr %34, align 8
  %35 = getelementptr inbounds nuw i8, ptr %10, i64 128
  store i64 64, ptr %35, align 8
  %36 = load i64, ptr %18, align 8
  %37 = getelementptr inbounds nuw i8, ptr %10, i64 48
  %38 = load i64, ptr %37, align 8
  %spec.select.i = call i64 @llvm.umin.i64(i64 %36, i64 %38)
  %.1.i = call i64 @llvm.umin.i64(i64 %spec.select.i, i64 64)
  %39 = getelementptr inbounds nuw i8, ptr %10, i64 120
  store i64 %.1.i, ptr %39, align 8
  %40 = getelementptr inbounds nuw i8, ptr %10, i64 256
  %41 = load i64, ptr %3, align 8
  %42 = load i64, ptr %6, align 8
  %43 = ptrtoint ptr %10 to i64
  %44 = add i64 %41, %43
  %45 = add i64 %44, %42
  %46 = trunc i64 %45 to i32
  %47 = call i32 @evutil_weakrand_seed_(ptr noundef nonnull %40, i32 noundef %46) #10
  br label %48

48:                                               ; preds = %2, %32
  call void @llvm.lifetime.end.p0(i64 16, ptr nonnull %3) #10
  ret ptr %10
}